target datalayout = "e-m:e-p270:32:32-p271:32:32-p272:64:64-i64:64-i128:128-f80:128-n8:16:32:64-S128"
target triple = "x86_64-pc-linux-gnu"

%struct.strbuf = type { i64, i64, ptr }
%struct.note_data = type { i32, i32, ptr, %struct.strbuf, ptr, i64, i64 }
%struct.option = type { i32, i32, ptr, ptr, ptr, ptr, i32, ptr, i64, ptr, i64, ptr }

@.str.44 = private unnamed_addr constant [16 x i8] c"builtin/notes.c\00", align 1
@.str.49 = private unnamed_addr constant [41 x i8] c"option callback does not expect negation\00", align 1

; Function Attrs: nounwind uwtable
define internal i32 @parse_reedit_arg(ptr noundef %0, ptr noundef %1, i32 noundef %2) #0 {
  %4 = alloca ptr, align 8
  %5 = alloca ptr, align 8
  %6 = alloca i32, align 4
  %7 = alloca ptr, align 8
  store ptr %0, ptr %4, align 8, !tbaa !66
  store ptr %1, ptr %5, align 8, !tbaa !11
  store i32 %2, ptr %6, align 4, !tbaa !4
  call void @llvm.lifetime.start.p0(i64 8, ptr %7) #11
  %8 = load ptr, ptr %4, align 8, !tbaa !66
  %9 = getelementptr inbounds nuw %struct.option, ptr %8, i32 0, i32 3
  %10 = load ptr, ptr %9, align 8, !tbaa !21
  store ptr %10, ptr %7, align 8, !tbaa !68
  br label %11

11:                                               ; preds = %3
  %12 = load i32, ptr %6, align 4, !tbaa !4
  %13 = icmp ne i32 %12, 0
  br i1 %13, label %14, label %15

14:                                               ; preds = %11
  call void (ptr, i32, ptr, ...) @BUG_fl(ptr noundef @.str.44, i32 noundef 343, ptr noundef @.str.49) #12
  unreachable

15:                                               ; preds = %11
  br label %16

16:                                               ; preds = %15
  br label %17

17:                                               ; preds = %16
  %18 = load ptr, ptr %7, align 8, !tbaa !68
  %19 = getelementptr inbounds nuw %struct.note_data, ptr %18, i32 0, i32 0
  store i32 1, ptr %19, align 8, !tbaa !76
  %20 = load ptr, ptr %4, align 8, !tbaa !66
  %21 = load ptr, ptr %5, align 8, !tbaa !11
  %22 = load i32, ptr %6, align 4, !tbaa !4
  %23 = call i32 @parse_reuse_arg(ptr noundef %20, ptr noundef %21, i32 noundef %22)
  call void @llvm.lifetime.end.p0(i64 8, ptr %7) #11
  ret i32 %23
}