; Function Attrs: nounwind uwtable
define internal noundef i32 @parse_reedit_arg(ptr noundef readonly captures(none) %0, ptr noundef %1, i32 noundef %2) #0 {
  %.not = icmp eq i32 %2, 0
  br i1 %.not, label %5, label %4

4:                                                ; preds = %3
  tail call void (ptr, i32, ptr, ...) @BUG_fl(ptr noundef nonnull @.str.44, i32 noundef 343, ptr noundef nonnull @.str.49) #17
  unreachable

5:                                                ; preds = %3
  %6 = getelementptr inbounds nuw i8, ptr %0, i64 16
  %7 = load ptr, ptr %6, align 8, !tbaa !16
  store i32 1, ptr %7, align 8, !tbaa !85
  %8 = tail call i32 @parse_reuse_arg(ptr noundef %0, ptr noundef %1, i32 noundef 0)
  ret i32 0
}